; Function Attrs: mustprogress uwtable
define hidden noundef ptr @pj_geoc(ptr noundef writeonly %0) local_unnamed_addr #4 {
  %.not = icmp eq ptr %0, null
  br i1 %.not, label %8, label %2

2:                                                ; preds = %1
  %3 = getelementptr inbounds nuw i8, ptr %0, i64 144
  store ptr @_ZL7inverseR8PJ_COORDP8PJconsts, ptr %3, align 8, !tbaa !40
  %4 = getelementptr inbounds nuw i8, ptr %0, i64 136
  store ptr @_ZL7forwardR8PJ_COORDP8PJconsts, ptr %4, align 8, !tbaa !41
  %5 = getelementptr inbounds nuw i8, ptr %0, i64 380
  store i32 4, ptr %5, align 4, !tbaa !42
  %6 = getelementptr inbounds nuw i8, ptr %0, i64 384
  store i32 4, ptr %6, align 8, !tbaa !43
  %7 = getelementptr inbounds nuw i8, ptr %0, i64 352
  store i32 1, ptr %7, align 8, !tbaa !44
  br label %17

8:                                                ; preds = %1
  %9 = tail call noundef ptr @_Z6pj_newv()
  %10 = icmp eq ptr %9, null
  br i1 %10, label %17, label %11

11:                                               ; preds = %8
  %12 = getelementptr inbounds nuw i8, ptr %9, i64 8
  store ptr @.str, ptr %12, align 8, !tbaa !45
  %13 = getelementptr inbounds nuw i8, ptr %9, i64 16
  store ptr @_ZL8des_geoc, ptr %13, align 8, !tbaa !46
  %14 = getelementptr inbounds nuw i8, ptr %9, i64 360
  store i32 1, ptr %14, align 8, !tbaa !47
  %15 = getelementptr inbounds nuw i8, ptr %9, i64 380
  store i32 4, ptr %15, align 4, !tbaa !42
  %16 = getelementptr inbounds nuw i8, ptr %9, i64 384
  store i32 1, ptr %16, align 8, !tbaa !43
  br label %17

17:                                               ; preds = %8, %11, %2
  %.0 = phi ptr [ %0, %2 ], [ %9, %11 ], [ null, %8 ]
  ret ptr %.0
}